target datalayout = "e-m:e-p270:32:32-p271:32:32-p272:64:64-i64:64-i128:128-f80:128-n8:16:32:64-S128"
target triple = "x86_64-pc-linux-gnu"

%struct.ossl_method_construct_method_st = type { ptr, ptr, ptr, ptr, ptr, ptr, ptr }
%struct.loader_data_st = type { ptr, i32, ptr, ptr, ptr, i8 }

@.str = private unnamed_addr constant [37 x i8] c"../openssl/crypto/store/store_meth.c\00", align 1
@.str.1 = private unnamed_addr constant [1 x i8] zeroinitializer, align 1
@__func__.inner_loader_fetch = private unnamed_addr constant [19 x i8] c"inner_loader_fetch\00", align 1
@__const.inner_loader_fetch.mcm = private unnamed_addr constant %struct.ossl_method_construct_method_st { ptr @get_tmp_loader_store, ptr @reserve_loader_store, ptr @unreserve_loader_store, ptr @get_loader_from_store, ptr @put_loader_in_store, ptr @construct_loader, ptr @destruct_loader }, align 8
@.str.2 = private unnamed_addr constant [152 x i8] c"No store loader found. For standard store loaders you need at least one of the default or base providers available. Did you forget to load them? Info: \00", align 1
@.str.3 = private unnamed_addr constant [40 x i8] c"%s%s, Scheme (%s : %d), Properties (%s)\00", align 1
@.str.4 = private unnamed_addr constant [7 x i8] c"<null>\00", align 1

; Function Attrs: nounwind uwtable
define internal ptr @get_loader_store(ptr noundef %0) #0 {
  %2 = alloca ptr, align 8
  store ptr %0, ptr %2, align 8, !tbaa !19
  %3 = load ptr, ptr %2, align 8, !tbaa !19
  %4 = call ptr @ossl_lib_ctx_get_data(ptr noundef %3, i32 noundef 15)
  ret ptr %4
}

; Function Attrs: nounwind uwtable
define internal ptr @inner_loader_fetch(ptr noundef %0, ptr noundef %1, ptr noundef %2) #0 {
  %4 = alloca ptr, align 8
  %5 = alloca ptr, align 8
  %6 = alloca ptr, align 8
  %7 = alloca ptr, align 8
  %8 = alloca ptr, align 8
  %9 = alloca ptr, align 8
  %10 = alloca ptr, align 8
  %11 = alloca ptr, align 8
  %12 = alloca i32, align 4
  %13 = alloca i32, align 4
  %14 = alloca i32, align 4
  %15 = alloca %struct.ossl_method_construct_method_st, align 8
  %16 = alloca ptr, align 8
  %17 = alloca i32, align 4
  %18 = alloca ptr, align 8
  store ptr %0, ptr %5, align 8, !tbaa !26
  store ptr %1, ptr %6, align 8, !tbaa !21
  store ptr %2, ptr %7, align 8, !tbaa !21
  call void @llvm.lifetime.start.p0(i64 8, ptr %8) #6
  %19 = load ptr, ptr %5, align 8, !tbaa !26
  %20 = getelementptr inbounds nuw %struct.loader_data_st, ptr %19, i32 0, i32 0
  %21 = load ptr, ptr %20, align 8, !tbaa !22
  %22 = call ptr @get_loader_store(ptr noundef %21)
  store ptr %22, ptr %8, align 8, !tbaa !28
  call void @llvm.lifetime.start.p0(i64 8, ptr %9) #6
  %23 = load ptr, ptr %5, align 8, !tbaa !26
  %24 = getelementptr inbounds nuw %struct.loader_data_st, ptr %23, i32 0, i32 0
  %25 = load ptr, ptr %24, align 8, !tbaa !22
  %26 = call ptr @ossl_namemap_stored(ptr noundef %25)
  store ptr %26, ptr %9, align 8, !tbaa !29
  call void @llvm.lifetime.start.p0(i64 8, ptr %10) #6
  %27 = load ptr, ptr %7, align 8, !tbaa !21
  %28 = icmp ne ptr %27, null
  br i1 %28, label %29, label %31

29:                                               ; preds = %3
  %30 = load ptr, ptr %7, align 8, !tbaa !21
  br label %32

31:                                               ; preds = %3
  br label %32

32:                                               ; preds = %31, %29
  %33 = phi ptr [ %30, %29 ], [ @.str.1, %31 ]
  store ptr %33, ptr %10, align 8, !tbaa !21
  call void @llvm.lifetime.start.p0(i64 8, ptr %11) #6
  store ptr null, ptr %11, align 8, !tbaa !16
  call void @llvm.lifetime.start.p0(i64 4, ptr %12) #6
  call void @llvm.lifetime.start.p0(i64 4, ptr %13) #6
  %34 = load ptr, ptr %8, align 8, !tbaa !28
  %35 = icmp eq ptr %34, null
  br i1 %35, label %39, label %36

36:                                               ; preds = %32
  %37 = load ptr, ptr %9, align 8, !tbaa !29
  %38 = icmp eq ptr %37, null
  br i1 %38, label %39, label %40

39:                                               ; preds = %36, %32
  call void @ERR_new()
  call void @ERR_set_debug(ptr noundef @.str, i32 noundef 298, ptr noundef @__func__.inner_loader_fetch)
  call void (i32, i32, ptr, ...) @ERR_set_error(i32 noundef 44, i32 noundef 524550, ptr noundef null)
  store ptr null, ptr %4, align 8
  store i32 1, ptr %14, align 4
  br label %151

40:                                               ; preds = %36
  %41 = load ptr, ptr %6, align 8, !tbaa !21
  %42 = icmp ne ptr %41, null
  br i1 %42, label %43, label %47

43:                                               ; preds = %40
  %44 = load ptr, ptr %9, align 8, !tbaa !29
  %45 = load ptr, ptr %6, align 8, !tbaa !21
  %46 = call i32 @ossl_namemap_name2num(ptr noundef %44, ptr noundef %45)
  br label %48

47:                                               ; preds = %40
  br label %48

48:                                               ; preds = %47, %43
  %49 = phi i32 [ %46, %43 ], [ 0, %47 ]
  store i32 %49, ptr %13, align 4, !tbaa !8
  %50 = load i32, ptr %13, align 4, !tbaa !8
  %51 = icmp eq i32 %50, 0
  %52 = zext i1 %51 to i32
  store i32 %52, ptr %12, align 4, !tbaa !8
  %53 = load i32, ptr %13, align 4, !tbaa !8
  %54 = icmp eq i32 %53, 0
  br i1 %54, label %61, label %55

55:                                               ; preds = %48
  %56 = load ptr, ptr %8, align 8, !tbaa !28
  %57 = load i32, ptr %13, align 4, !tbaa !8
  %58 = load ptr, ptr %10, align 8, !tbaa !21
  %59 = call i32 @ossl_method_store_cache_get(ptr noundef %56, ptr noundef null, i32 noundef %57, ptr noundef %58, ptr noundef %11)
  %60 = icmp ne i32 %59, 0
  br i1 %60, label %105, label %61

61:                                               ; preds = %55, %48
  call void @llvm.lifetime.start.p0(i64 56, ptr %15) #6
  call void @llvm.memcpy.p0.p0.i64(ptr align 8 %15, ptr align 8 @__const.inner_loader_fetch.mcm, i64 56, i1 false)
  call void @llvm.lifetime.start.p0(i64 8, ptr %16) #6
  store ptr null, ptr %16, align 8, !tbaa !31
  %62 = load i32, ptr %13, align 4, !tbaa !8
  %63 = load ptr, ptr %5, align 8, !tbaa !26
  %64 = getelementptr inbounds nuw %struct.loader_data_st, ptr %63, i32 0, i32 1
  store i32 %62, ptr %64, align 8, !tbaa !32
  %65 = load ptr, ptr %6, align 8, !tbaa !21
  %66 = load ptr, ptr %5, align 8, !tbaa !26
  %67 = getelementptr inbounds nuw %struct.loader_data_st, ptr %66, i32 0, i32 2
  store ptr %65, ptr %67, align 8, !tbaa !33
  %68 = load ptr, ptr %10, align 8, !tbaa !21
  %69 = load ptr, ptr %5, align 8, !tbaa !26
  %70 = getelementptr inbounds nuw %struct.loader_data_st, ptr %69, i32 0, i32 3
  store ptr %68, ptr %70, align 8, !tbaa !34
  %71 = load ptr, ptr %5, align 8, !tbaa !26
  %72 = getelementptr inbounds nuw %struct.loader_data_st, ptr %71, i32 0, i32 5
  %73 = load i8, ptr %72, align 8
  %74 = and i8 %73, -2
  %75 = or i8 %74, 0
  store i8 %75, ptr %72, align 8
  %76 = load ptr, ptr %5, align 8, !tbaa !26
  %77 = getelementptr inbounds nuw %struct.loader_data_st, ptr %76, i32 0, i32 0
  %78 = load ptr, ptr %77, align 8, !tbaa !22
  %79 = load ptr, ptr %5, align 8, !tbaa !26
  %80 = call ptr @ossl_method_construct(ptr noundef %78, i32 noundef 22, ptr noundef %16, i32 noundef 0, ptr noundef %15, ptr noundef %79)
  store ptr %80, ptr %11, align 8, !tbaa !16
  %81 = icmp ne ptr %80, null
  br i1 %81, label %82, label %96

82:                                               ; preds = %61
  %83 = load i32, ptr %13, align 4, !tbaa !8
  %84 = icmp eq i32 %83, 0
  br i1 %84, label %85, label %89

85:                                               ; preds = %82
  %86 = load ptr, ptr %9, align 8, !tbaa !29
  %87 = load ptr, ptr %6, align 8, !tbaa !21
  %88 = call i32 @ossl_namemap_name2num(ptr noundef %86, ptr noundef %87)
  store i32 %88, ptr %13, align 4, !tbaa !8
  br label %89

89:                                               ; preds = %85, %82
  %90 = load ptr, ptr %8, align 8, !tbaa !28
  %91 = load ptr, ptr %16, align 8, !tbaa !31
  %92 = load i32, ptr %13, align 4, !tbaa !8
  %93 = load ptr, ptr %10, align 8, !tbaa !21
  %94 = load ptr, ptr %11, align 8, !tbaa !16
  %95 = call i32 @ossl_method_store_cache_set(ptr noundef %90, ptr noundef %91, i32 noundef %92, ptr noundef %93, ptr noundef %94, ptr noundef @up_ref_loader, ptr noundef @free_loader)
  br label %96

96:                                               ; preds = %89, %61
  %97 = load ptr, ptr %5, align 8, !tbaa !26
  %98 = getelementptr inbounds nuw %struct.loader_data_st, ptr %97, i32 0, i32 5
  %99 = load i8, ptr %98, align 8
  %100 = and i8 %99, 1
  %101 = zext i8 %100 to i32
  %102 = icmp ne i32 %101, 0
  %103 = xor i1 %102, true
  %104 = zext i1 %103 to i32
  store i32 %104, ptr %12, align 4, !tbaa !8
  call void @llvm.lifetime.end.p0(i64 8, ptr %16) #6
  call void @llvm.lifetime.end.p0(i64 56, ptr %15) #6
  br label %105

105:                                              ; preds = %96, %55
  %106 = load i32, ptr %13, align 4, !tbaa !8
  %107 = icmp ne i32 %106, 0
  br i1 %107, label %111, label %108

108:                                              ; preds = %105
  %109 = load ptr, ptr %6, align 8, !tbaa !21
  %110 = icmp ne ptr %109, null
  br i1 %110, label %111, label %149

111:                                              ; preds = %108, %105
  %112 = load ptr, ptr %11, align 8, !tbaa !16
  %113 = icmp eq ptr %112, null
  br i1 %113, label %114, label %149

114:                                              ; preds = %111
  call void @llvm.lifetime.start.p0(i64 4, ptr %17) #6
  %115 = load i32, ptr %12, align 4, !tbaa !8
  %116 = icmp ne i32 %115, 0
  %117 = select i1 %116, i32 524556, i32 524557
  store i32 %117, ptr %17, align 4, !tbaa !8
  call void @llvm.lifetime.start.p0(i64 8, ptr %18) #6
  %118 = load i32, ptr %12, align 4, !tbaa !8
  %119 = icmp ne i32 %118, 0
  %120 = select i1 %119, ptr @.str.2, ptr @.str.1
  store ptr %120, ptr %18, align 8, !tbaa !21
  %121 = load ptr, ptr %6, align 8, !tbaa !21
  %122 = icmp eq ptr %121, null
  br i1 %122, label %123, label %127

123:                                              ; preds = %114
  %124 = load ptr, ptr %9, align 8, !tbaa !29
  %125 = load i32, ptr %13, align 4, !tbaa !8
  %126 = call ptr @ossl_namemap_num2name(ptr noundef %124, i32 noundef %125, i64 noundef 0)
  store ptr %126, ptr %6, align 8, !tbaa !21
  br label %127

127:                                              ; preds = %123, %114
  call void @ERR_new()
  call void @ERR_set_debug(ptr noundef @.str, i32 noundef 360, ptr noundef @__func__.inner_loader_fetch)
  %128 = load i32, ptr %17, align 4, !tbaa !8
  %129 = load ptr, ptr %18, align 8, !tbaa !21
  %130 = load ptr, ptr %5, align 8, !tbaa !26
  %131 = getelementptr inbounds nuw %struct.loader_data_st, ptr %130, i32 0, i32 0
  %132 = load ptr, ptr %131, align 8, !tbaa !22
  %133 = call ptr @ossl_lib_ctx_get_descriptor(ptr noundef %132)
  %134 = load ptr, ptr %6, align 8, !tbaa !21
  %135 = icmp eq ptr %134, null
  br i1 %135, label %136, label %137

136:                                              ; preds = %127
  br label %139

137:                                              ; preds = %127
  %138 = load ptr, ptr %6, align 8, !tbaa !21
  br label %139

139:                                              ; preds = %137, %136
  %140 = phi ptr [ @.str.4, %136 ], [ %138, %137 ]
  %141 = load i32, ptr %13, align 4, !tbaa !8
  %142 = load ptr, ptr %7, align 8, !tbaa !21
  %143 = icmp eq ptr %142, null
  br i1 %143, label %144, label %145

144:                                              ; preds = %139
  br label %147

145:                                              ; preds = %139
  %146 = load ptr, ptr %7, align 8, !tbaa !21
  br label %147

147:                                              ; preds = %145, %144
  %148 = phi ptr [ @.str.4, %144 ], [ %146, %145 ]
  call void (i32, i32, ptr, ...) @ERR_set_error(i32 noundef 44, i32 noundef %128, ptr noundef @.str.3, ptr noundef %129, ptr noundef %133, ptr noundef %140, i32 noundef %141, ptr noundef %148)
  call void @llvm.lifetime.end.p0(i64 8, ptr %18) #6
  call void @llvm.lifetime.end.p0(i64 4, ptr %17) #6
  br label %149

149:                                              ; preds = %147, %111, %108
  %150 = load ptr, ptr %11, align 8, !tbaa !16
  store ptr %150, ptr %4, align 8
  store i32 1, ptr %14, align 4
  br label %151

151:                                              ; preds = %149, %39
  call void @llvm.lifetime.end.p0(i64 4, ptr %13) #6
  call void @llvm.lifetime.end.p0(i64 4, ptr %12) #6
  call void @llvm.lifetime.end.p0(i64 8, ptr %11) #6
  call void @llvm.lifetime.end.p0(i64 8, ptr %10) #6
  call void @llvm.lifetime.end.p0(i64 8, ptr %9) #6
  call void @llvm.lifetime.end.p0(i64 8, ptr %8) #6
  %152 = load ptr, ptr %4, align 8
  ret ptr %152
}