; Function Attrs: nounwind uwtable
define internal fastcc ptr @inner_loader_fetch(ptr noundef nonnull %0, ptr noundef %1, ptr noundef %2) unnamed_addr #2 {
  %4 = alloca ptr, align 8
  %5 = alloca %struct.ossl_method_construct_method_st, align 8
  %6 = alloca ptr, align 8
  %7 = load ptr, ptr %0, align 8, !tbaa !13
  %8 = tail call ptr @ossl_lib_ctx_get_data(ptr noundef %7, i32 noundef 15) #6
  %9 = load ptr, ptr %0, align 8, !tbaa !13
  %10 = tail call ptr @ossl_namemap_stored(ptr noundef %9) #6
  %.not = icmp eq ptr %2, null
  %11 = select i1 %.not, ptr @.str.1, ptr %2
  call void @llvm.lifetime.start.p0(i64 8, ptr nonnull %4) #6
  store ptr null, ptr %4, align 8, !tbaa !18
  %12 = icmp eq ptr %8, null
  %13 = icmp eq ptr %10, null
  %or.cond = select i1 %12, i1 true, i1 %13
  br i1 %or.cond, label %14, label %15

14:                                               ; preds = %3
  tail call void @ERR_new() #6
  tail call void @ERR_set_debug(ptr noundef nonnull @.str, i32 noundef 298, ptr noundef nonnull @__func__.inner_loader_fetch) #6
  tail call void (i32, i32, ptr, ...) @ERR_set_error(i32 noundef 44, i32 noundef 524550, ptr noundef null) #6
  br label %59

15:                                               ; preds = %3
  %16 = icmp ne ptr %1, null
  br i1 %16, label %17, label %.thread

17:                                               ; preds = %15
  %18 = tail call i32 @ossl_namemap_name2num(ptr noundef nonnull %10, ptr noundef nonnull %1) #6
  %19 = icmp eq i32 %18, 0
  br i1 %19, label %.thread, label %20

20:                                               ; preds = %17
  %21 = call i32 @ossl_method_store_cache_get(ptr noundef nonnull %8, ptr noundef null, i32 noundef %18, ptr noundef nonnull %11, ptr noundef nonnull %4) #6
  %.not59 = icmp eq i32 %21, 0
  br i1 %.not59, label %.thread, label %43

.thread:                                          ; preds = %15, %20, %17
  %22 = phi i1 [ false, %20 ], [ true, %17 ], [ true, %15 ]
  %23 = phi i32 [ %18, %20 ], [ 0, %17 ], [ 0, %15 ]
  call void @llvm.lifetime.start.p0(i64 56, ptr nonnull %5) #6
  call void @llvm.memcpy.p0.p0.i64(ptr noundef nonnull align 8 dereferenceable(56) %5, ptr noundef nonnull align 8 dereferenceable(56) @__const.inner_loader_fetch.mcm, i64 56, i1 false)
  call void @llvm.lifetime.start.p0(i64 8, ptr nonnull %6) #6
  store ptr null, ptr %6, align 8, !tbaa !19
  %24 = getelementptr inbounds nuw i8, ptr %0, i64 8
  store i32 %23, ptr %24, align 8, !tbaa !20
  %25 = getelementptr inbounds nuw i8, ptr %0, i64 16
  store ptr %1, ptr %25, align 8, !tbaa !21
  %26 = getelementptr inbounds nuw i8, ptr %0, i64 24
  store ptr %11, ptr %26, align 8, !tbaa !22
  %27 = getelementptr inbounds nuw i8, ptr %0, i64 40
  %28 = load i8, ptr %27, align 8
  %29 = and i8 %28, -2
  store i8 %29, ptr %27, align 8
  %30 = load ptr, ptr %0, align 8, !tbaa !13
  %31 = call ptr @ossl_method_construct(ptr noundef %30, i32 noundef 22, ptr noundef nonnull %6, i32 noundef 0, ptr noundef nonnull %5, ptr noundef nonnull %0) #6
  store ptr %31, ptr %4, align 8, !tbaa !18
  %.not60 = icmp eq ptr %31, null
  br i1 %.not60, label %39, label %32

32:                                               ; preds = %.thread
  br i1 %22, label %33, label %35

33:                                               ; preds = %32
  %34 = call i32 @ossl_namemap_name2num(ptr noundef nonnull %10, ptr noundef %1) #6
  %.pre = load ptr, ptr %4, align 8, !tbaa !18
  br label %35

35:                                               ; preds = %33, %32
  %36 = phi ptr [ %.pre, %33 ], [ %31, %32 ]
  %.2 = phi i32 [ %34, %33 ], [ %23, %32 ]
  %37 = load ptr, ptr %6, align 8, !tbaa !19
  %38 = call i32 @ossl_method_store_cache_set(ptr noundef nonnull %8, ptr noundef %37, i32 noundef %.2, ptr noundef nonnull %11, ptr noundef %36, ptr noundef nonnull @up_ref_loader, ptr noundef nonnull @free_loader) #6
  br label %39

39:                                               ; preds = %35, %.thread
  %.1 = phi i32 [ %.2, %35 ], [ %23, %.thread ]
  %40 = load i8, ptr %27, align 8
  %41 = and i8 %40, 1
  call void @llvm.lifetime.end.p0(i64 8, ptr nonnull %6) #6
  call void @llvm.lifetime.end.p0(i64 56, ptr nonnull %5) #6
  %42 = icmp ne i8 %41, 0
  br label %43

43:                                               ; preds = %39, %20
  %.052 = phi i1 [ %42, %39 ], [ true, %20 ]
  %.051 = phi i32 [ %.1, %39 ], [ %18, %20 ]
  %44 = icmp ne i32 %.051, 0
  %or.cond3 = or i1 %16, %44
  %45 = load ptr, ptr %4, align 8
  %46 = icmp eq ptr %45, null
  %or.cond5 = select i1 %or.cond3, i1 %46, i1 false
  br i1 %or.cond5, label %47, label %59

47:                                               ; preds = %43
  %48 = select i1 %.052, i32 524557, i32 524556
  %49 = select i1 %.052, ptr @.str.1, ptr @.str.2
  %50 = icmp eq ptr %1, null
  br i1 %50, label %51, label %53

51:                                               ; preds = %47
  %52 = call ptr @ossl_namemap_num2name(ptr noundef nonnull %10, i32 noundef %.051, i64 noundef 0) #6
  br label %53

53:                                               ; preds = %51, %47
  %.050 = phi ptr [ %52, %51 ], [ %1, %47 ]
  call void @ERR_new() #6
  call void @ERR_set_debug(ptr noundef nonnull @.str, i32 noundef 360, ptr noundef nonnull @__func__.inner_loader_fetch) #6
  %54 = load ptr, ptr %0, align 8, !tbaa !13
  %55 = call ptr @ossl_lib_ctx_get_descriptor(ptr noundef %54) #6
  %56 = icmp eq ptr %.050, null
  %57 = select i1 %56, ptr @.str.4, ptr %.050
  %58 = select i1 %.not, ptr @.str.4, ptr %2
  call void (i32, i32, ptr, ...) @ERR_set_error(i32 noundef 44, i32 noundef %48, ptr noundef nonnull @.str.3, ptr noundef nonnull %49, ptr noundef %55, ptr noundef nonnull %57, i32 noundef %.051, ptr noundef nonnull %58) #6
  %.pre63 = load ptr, ptr %4, align 8, !tbaa !18
  br label %59

59:                                               ; preds = %53, %43, %14
  %.0 = phi ptr [ null, %14 ], [ %45, %43 ], [ %.pre63, %53 ]
  call void @llvm.lifetime.end.p0(i64 8, ptr nonnull %4) #6
  ret ptr %.0
}